target datalayout = "e-m:e-p270:32:32-p271:32:32-p272:64:64-i64:64-i128:128-f80:128-n8:16:32:64-S128"
target triple = "x86_64-pc-linux-gnu"

%class.ciBytecodeStream = type { ptr, ptr, ptr, ptr, ptr, ptr, ptr, ptr, i32, i32 }
%struct.ByteswapImpl = type { i8 }

@g_assert_poison = external global ptr, align 8
@.str = private unnamed_addr constant [35 x i8] c"src/hotspot/share/ci/ciStreams.cpp\00", align 1
@.str.4 = private unnamed_addr constant [19 x i8] c"unhandled bytecode\00", align 1
@_ZN9Bytecodes10_java_codeE = external constant [239 x i32], align 16
@_ZN9Bytecodes8_lengthsE = external constant [239 x i8], align 16

; Function Attrs: mustprogress nounwind uwtable
define internal noundef i64 @_ZL14alignment_maskImTnNSt9enable_ifIXcvbsr3std11is_integralIT_EE5valueEiE4typeELi0EES1_S1_(i64 noundef %0) #1 {
  %2 = alloca i64, align 8
  store i64 %0, ptr %2, align 8
  %3 = load i64, ptr %2, align 8
  %4 = sub i64 %3, 1
  ret i64 %4
}

; Function Attrs: mustprogress nounwind uwtable
define linkonce_odr hidden noundef zeroext i1 @_Z10is_alignedImmTnNSt9enable_ifIXcvbsr3std11is_integralIT_EE5valueEiE4typeELi0EEbS1_T0_(i64 noundef %0, i64 noundef %1) #1 comdat {
  %3 = alloca i64, align 8
  %4 = alloca i64, align 8
  store i64 %0, ptr %3, align 8
  store i64 %1, ptr %4, align 8
  %5 = load i64, ptr %3, align 8
  %6 = load i64, ptr %4, align 8
  %7 = call noundef i64 @_ZL14alignment_maskImTnNSt9enable_ifIXcvbsr3std11is_integralIT_EE5valueEiE4typeELi0EES1_S1_(i64 noundef %6)
  %8 = and i64 %5, %7
  %9 = icmp eq i64 %8, 0
  ret i1 %9
}

; Function Attrs: mustprogress nounwind uwtable
define linkonce_odr hidden noundef i32 @_ZNK12ByteswapImplIjLm4EEclEj(ptr noundef nonnull align 1 dereferenceable(1) %0, i32 noundef %1) #1 comdat align 2 {
  %3 = alloca ptr, align 8
  %4 = alloca i32, align 4
  store ptr %0, ptr %3, align 8
  store i32 %1, ptr %4, align 4
  %5 = load i32, ptr %4, align 4
  %6 = call i32 @llvm.bswap.i32(i32 %5)
  ret i32 %6
}

; Function Attrs: mustprogress nounwind uwtable
define linkonce_odr hidden noundef zeroext i1 @_Z10is_alignedIKvmEbPT_T0_(ptr noundef %0, i64 noundef %1) #1 comdat {
  %3 = alloca ptr, align 8
  %4 = alloca i64, align 8
  store ptr %0, ptr %3, align 8
  store i64 %1, ptr %4, align 8
  %5 = load ptr, ptr %3, align 8
  %6 = ptrtoint ptr %5 to i64
  %7 = load i64, ptr %4, align 8
  %8 = call noundef zeroext i1 @_Z10is_alignedImmTnNSt9enable_ifIXcvbsr3std11is_integralIT_EE5valueEiE4typeELi0EEbS1_T0_(i64 noundef %6, i64 noundef %7)
  ret i1 %8
}

; Function Attrs: mustprogress nounwind uwtable
define linkonce_odr hidden noundef i32 @_Z8byteswapIjTnNSt9enable_ifIXcvbsr3std11is_integralIT_EE5valueEiE4typeELi0EES1_S1_(i32 noundef %0) #1 comdat {
  %2 = alloca i32, align 4
  %3 = alloca %struct.ByteswapImpl, align 1
  store i32 %0, ptr %2, align 4
  %4 = load i32, ptr %2, align 4
  %5 = call noundef i32 @_ZNK12ByteswapImplIjLm4EEclEj(ptr noundef nonnull align 1 dereferenceable(1) %3, i32 noundef %4)
  ret i32 %5
}

; Function Attrs: mustprogress nounwind uwtable
define linkonce_odr hidden noundef zeroext i1 @_ZN6Endian31is_Java_byte_ordering_differentEv() #1 comdat align 2 {
  ret i1 true
}

; Function Attrs: mustprogress nounwind uwtable
define linkonce_odr hidden noundef i32 @_ZN5Bytes10get_nativeIjEET_PKv(ptr noundef %0) #1 comdat align 2 {
  %2 = alloca ptr, align 8
  %3 = alloca i32, align 4
  store ptr %0, ptr %2, align 8
  %4 = load ptr, ptr %2, align 8
  %5 = call noundef zeroext i1 @_Z10is_alignedIKvmEbPT_T0_(ptr noundef %4, i64 noundef 4)
  br i1 %5, label %6, label %9

6:                                                ; preds = %1
  %7 = load ptr, ptr %2, align 8
  %8 = load i32, ptr %7, align 4
  store i32 %8, ptr %3, align 4
  br label %11

9:                                                ; preds = %1
  %10 = load ptr, ptr %2, align 8
  call void @llvm.memcpy.p0.p0.i64(ptr align 4 %3, ptr align 1 %10, i64 4, i1 false)
  br label %11

11:                                               ; preds = %9, %6
  %12 = load i32, ptr %3, align 4
  ret i32 %12
}

; Function Attrs: mustprogress nounwind uwtable
define linkonce_odr hidden noundef i32 @_ZN5Bytes8get_JavaIjEET_Ph(ptr noundef %0) #1 comdat align 2 {
  %2 = alloca ptr, align 8
  %3 = alloca i32, align 4
  store ptr %0, ptr %2, align 8
  %4 = load ptr, ptr %2, align 8
  %5 = call noundef i32 @_ZN5Bytes10get_nativeIjEET_PKv(ptr noundef %4)
  store i32 %5, ptr %3, align 4
  %6 = call noundef zeroext i1 @_ZN6Endian31is_Java_byte_ordering_differentEv()
  br i1 %6, label %7, label %10

7:                                                ; preds = %1
  %8 = load i32, ptr %3, align 4
  %9 = call noundef i32 @_Z8byteswapIjTnNSt9enable_ifIXcvbsr3std11is_integralIT_EE5valueEiE4typeELi0EES1_S1_(i32 noundef %8)
  store i32 %9, ptr %3, align 4
  br label %10

10:                                               ; preds = %7, %1
  %11 = load i32, ptr %3, align 4
  ret i32 %11
}

; Function Attrs: mustprogress nounwind uwtable
define linkonce_odr hidden noundef zeroext i1 @_ZN9Bytecodes8is_validEi(i32 noundef %0) #1 comdat align 2 {
  %2 = alloca i32, align 4
  store i32 %0, ptr %2, align 4
  %3 = load i32, ptr %2, align 4
  %4 = icmp sle i32 0, %3
  br i1 %4, label %5, label %8

5:                                                ; preds = %1
  %6 = load i32, ptr %2, align 4
  %7 = icmp slt i32 %6, 239
  br label %8

8:                                                ; preds = %5, %1
  %9 = phi i1 [ false, %1 ], [ %7, %5 ]
  ret i1 %9
}

; Function Attrs: mustprogress nounwind uwtable
define linkonce_odr hidden void @_ZN9Bytecodes5checkENS_4CodeE(i32 noundef %0) #1 comdat align 2 {
  %2 = alloca i32, align 4
  store i32 %0, ptr %2, align 4
  ret void
}

; Function Attrs: mustprogress nounwind uwtable
define linkonce_odr hidden noundef i32 @_ZN5Bytes11get_Java_u4EPh(ptr noundef %0) #1 comdat align 2 {
  %2 = alloca ptr, align 8
  store ptr %0, ptr %2, align 8
  %3 = load ptr, ptr %2, align 8
  %4 = call noundef i32 @_ZN5Bytes8get_JavaIjEET_Ph(ptr noundef %3)
  ret i32 %4
}

; Function Attrs: mustprogress nounwind uwtable
define linkonce_odr hidden noundef i32 @_ZN9Bytecodes15wide_length_forENS_4CodeE(i32 noundef %0) #1 comdat align 2 {
  %2 = alloca i32, align 4
  store i32 %0, ptr %2, align 4
  %3 = load i32, ptr %2, align 4
  %4 = call noundef zeroext i1 @_ZN9Bytecodes8is_validEi(i32 noundef %3)
  br i1 %4, label %5, label %12

5:                                                ; preds = %1
  %6 = load i32, ptr %2, align 4
  %7 = sext i32 %6 to i64
  %8 = getelementptr inbounds [239 x i8], ptr @_ZN9Bytecodes8_lengthsE, i64 0, i64 %7
  %9 = load i8, ptr %8, align 1
  %10 = zext i8 %9 to i32
  %11 = ashr i32 %10, 4
  br label %13

12:                                               ; preds = %1
  br label %13

13:                                               ; preds = %12, %5
  %14 = phi i32 [ %11, %5 ], [ -1, %12 ]
  ret i32 %14
}

; Function Attrs: mustprogress nounwind uwtable
define linkonce_odr hidden noundef i32 @_ZN9Bytecodes9java_codeENS_4CodeE(i32 noundef %0) #1 comdat align 2 {
  %2 = alloca i32, align 4
  store i32 %0, ptr %2, align 4
  %3 = load i32, ptr %2, align 4
  call void @_ZN9Bytecodes5checkENS_4CodeE(i32 noundef %3)
  %4 = load i32, ptr %2, align 4
  %5 = sext i32 %4 to i64
  %6 = getelementptr inbounds [239 x i32], ptr @_ZN9Bytecodes10_java_codeE, i64 0, i64 %5
  %7 = load i32, ptr %6, align 4
  ret i32 %7
}

; Function Attrs: mustprogress nounwind uwtable
define hidden noundef i32 @_ZN16ciBytecodeStream18next_wide_or_tableEN9Bytecodes4CodeE(ptr noundef nonnull align 8 dereferenceable(72) %0, i32 noundef %1) #1 align 2 {
  %3 = alloca ptr, align 8
  %4 = alloca i32, align 4
  %5 = alloca i32, align 4
  %6 = alloca i32, align 4
  %7 = alloca i32, align 4
  store ptr %0, ptr %3, align 8
  store i32 %1, ptr %4, align 4
  %8 = load ptr, ptr %3, align 8
  %9 = load i32, ptr %4, align 4
  switch i32 %9, label %93 [
    i32 196, label %10
    i32 171, label %27
    i32 170, label %56
  ]

10:                                               ; preds = %2
  %11 = getelementptr inbounds %class.ciBytecodeStream, ptr %8, i32 0, i32 7
  %12 = load ptr, ptr %11, align 8
  %13 = getelementptr inbounds i8, ptr %12, i64 1
  %14 = load i8, ptr %13, align 1
  %15 = zext i8 %14 to i32
  %16 = getelementptr inbounds %class.ciBytecodeStream, ptr %8, i32 0, i32 9
  store i32 %15, ptr %16, align 4
  %17 = call noundef i32 @_ZN9Bytecodes9java_codeENS_4CodeE(i32 noundef %15)
  store i32 %17, ptr %4, align 4
  %18 = load i32, ptr %4, align 4
  %19 = call noundef i32 @_ZN9Bytecodes15wide_length_forENS_4CodeE(i32 noundef %18)
  %20 = getelementptr inbounds %class.ciBytecodeStream, ptr %8, i32 0, i32 7
  %21 = load ptr, ptr %20, align 8
  %22 = sext i32 %19 to i64
  %23 = getelementptr inbounds i8, ptr %21, i64 %22
  store ptr %23, ptr %20, align 8
  %24 = getelementptr inbounds %class.ciBytecodeStream, ptr %8, i32 0, i32 7
  %25 = load ptr, ptr %24, align 8
  %26 = getelementptr inbounds %class.ciBytecodeStream, ptr %8, i32 0, i32 3
  store ptr %25, ptr %26, align 8
  br label %97

27:                                               ; preds = %2
  %28 = getelementptr inbounds %class.ciBytecodeStream, ptr %8, i32 0, i32 7
  %29 = load ptr, ptr %28, align 8
  %30 = getelementptr inbounds i8, ptr %29, i32 1
  store ptr %30, ptr %28, align 8
  %31 = getelementptr inbounds %class.ciBytecodeStream, ptr %8, i32 0, i32 5
  %32 = load ptr, ptr %31, align 8
  %33 = getelementptr inbounds %class.ciBytecodeStream, ptr %8, i32 0, i32 7
  %34 = load ptr, ptr %33, align 8
  %35 = ptrtoint ptr %32 to i64
  %36 = ptrtoint ptr %34 to i64
  %37 = sub i64 %35, %36
  %38 = and i64 %37, 3
  %39 = getelementptr inbounds %class.ciBytecodeStream, ptr %8, i32 0, i32 7
  %40 = load ptr, ptr %39, align 8
  %41 = getelementptr inbounds i8, ptr %40, i64 %38
  store ptr %41, ptr %39, align 8
  %42 = getelementptr inbounds %class.ciBytecodeStream, ptr %8, i32 0, i32 7
  %43 = load ptr, ptr %42, align 8
  %44 = getelementptr inbounds %class.ciBytecodeStream, ptr %8, i32 0, i32 4
  store ptr %43, ptr %44, align 8
  %45 = getelementptr inbounds %class.ciBytecodeStream, ptr %8, i32 0, i32 4
  %46 = load ptr, ptr %45, align 8
  %47 = getelementptr inbounds %class.ciBytecodeStream, ptr %8, i32 0, i32 4
  %48 = load ptr, ptr %47, align 8
  %49 = getelementptr inbounds i32, ptr %48, i64 1
  %50 = call noundef i32 @_ZN5Bytes11get_Java_u4EPh(ptr noundef %49)
  %51 = mul i32 2, %50
  %52 = add i32 2, %51
  %53 = zext i32 %52 to i64
  %54 = getelementptr inbounds i32, ptr %46, i64 %53
  %55 = getelementptr inbounds %class.ciBytecodeStream, ptr %8, i32 0, i32 7
  store ptr %54, ptr %55, align 8
  br label %97

56:                                               ; preds = %2
  %57 = getelementptr inbounds %class.ciBytecodeStream, ptr %8, i32 0, i32 7
  %58 = load ptr, ptr %57, align 8
  %59 = getelementptr inbounds i8, ptr %58, i32 1
  store ptr %59, ptr %57, align 8
  %60 = getelementptr inbounds %class.ciBytecodeStream, ptr %8, i32 0, i32 5
  %61 = load ptr, ptr %60, align 8
  %62 = getelementptr inbounds %class.ciBytecodeStream, ptr %8, i32 0, i32 7
  %63 = load ptr, ptr %62, align 8
  %64 = ptrtoint ptr %61 to i64
  %65 = ptrtoint ptr %63 to i64
  %66 = sub i64 %64, %65
  %67 = and i64 %66, 3
  %68 = getelementptr inbounds %class.ciBytecodeStream, ptr %8, i32 0, i32 7
  %69 = load ptr, ptr %68, align 8
  %70 = getelementptr inbounds i8, ptr %69, i64 %67
  store ptr %70, ptr %68, align 8
  %71 = getelementptr inbounds %class.ciBytecodeStream, ptr %8, i32 0, i32 7
  %72 = load ptr, ptr %71, align 8
  %73 = getelementptr inbounds %class.ciBytecodeStream, ptr %8, i32 0, i32 4
  store ptr %72, ptr %73, align 8
  %74 = getelementptr inbounds %class.ciBytecodeStream, ptr %8, i32 0, i32 4
  %75 = load ptr, ptr %74, align 8
  %76 = getelementptr inbounds i32, ptr %75, i64 1
  %77 = call noundef i32 @_ZN5Bytes11get_Java_u4EPh(ptr noundef %76)
  store i32 %77, ptr %5, align 4
  %78 = getelementptr inbounds %class.ciBytecodeStream, ptr %8, i32 0, i32 4
  %79 = load ptr, ptr %78, align 8
  %80 = getelementptr inbounds i32, ptr %79, i64 2
  %81 = call noundef i32 @_ZN5Bytes11get_Java_u4EPh(ptr noundef %80)
  store i32 %81, ptr %6, align 4
  %82 = load i32, ptr %6, align 4
  %83 = load i32, ptr %5, align 4
  %84 = sub nsw i32 %82, %83
  %85 = add nsw i32 %84, 1
  store i32 %85, ptr %7, align 4
  %86 = getelementptr inbounds %class.ciBytecodeStream, ptr %8, i32 0, i32 4
  %87 = load ptr, ptr %86, align 8
  %88 = load i32, ptr %7, align 4
  %89 = add nsw i32 3, %88
  %90 = sext i32 %89 to i64
  %91 = getelementptr inbounds i32, ptr %87, i64 %90
  %92 = getelementptr inbounds %class.ciBytecodeStream, ptr %8, i32 0, i32 7
  store ptr %91, ptr %92, align 8
  br label %97

93:                                               ; preds = %2
  br label %94

94:                                               ; preds = %93
  %95 = load ptr, ptr @g_assert_poison, align 8
  store i8 88, ptr %95, align 1
  call void (i32, ptr, i32, ptr, ...) @_Z12report_fatal11VMErrorTypePKciS1_z(i32 noundef -536870912, ptr noundef @.str, i32 noundef 130, ptr noundef @.str.4) #7
  unreachable

96:                                               ; No predecessors!
  br label %97

97:                                               ; preds = %96, %56, %27, %10
  %98 = load i32, ptr %4, align 4
  ret i32 %98
}