; Function Attrs: mustprogress nounwind uwtable
define hidden noundef i32 @_ZN16ciBytecodeStream18next_wide_or_tableEN9Bytecodes4CodeE(ptr nocapture noundef nonnull align 8 dereferenceable(72) %0, i32 noundef %1) local_unnamed_addr #0 align 2 {
  switch i32 %1, label %61 [
    i32 196, label %3
    i32 171, label %23
    i32 170, label %41
  ]

3:                                                ; preds = %2
  %4 = getelementptr inbounds i8, ptr %0, i64 56
  %5 = load ptr, ptr %4, align 8
  %6 = getelementptr inbounds i8, ptr %5, i64 1
  %7 = load i8, ptr %6, align 1
  %8 = zext i8 %7 to i32
  %9 = getelementptr inbounds i8, ptr %0, i64 68
  store i32 %8, ptr %9, align 4
  %10 = zext i8 %7 to i64
  %11 = getelementptr inbounds [239 x i32], ptr @_ZN9Bytecodes10_java_codeE, i64 0, i64 %10
  %12 = load i32, ptr %11, align 4
  %13 = icmp ult i32 %12, 239
  br i1 %13, label %14, label %_ZN9Bytecodes15wide_length_forENS_4CodeE.exit

14:                                               ; preds = %3
  %15 = zext nneg i32 %12 to i64
  %16 = getelementptr inbounds [239 x i8], ptr @_ZN9Bytecodes8_lengthsE, i64 0, i64 %15
  %17 = load i8, ptr %16, align 1
  %18 = lshr i8 %17, 4
  %19 = zext nneg i8 %18 to i64
  br label %_ZN9Bytecodes15wide_length_forENS_4CodeE.exit

_ZN9Bytecodes15wide_length_forENS_4CodeE.exit:    ; preds = %3, %14
  %20 = phi i64 [ %19, %14 ], [ -1, %3 ]
  %21 = getelementptr inbounds i8, ptr %5, i64 %20
  store ptr %21, ptr %4, align 8
  %22 = getelementptr inbounds i8, ptr %0, i64 24
  store ptr %21, ptr %22, align 8
  br label %63

23:                                               ; preds = %2
  %24 = getelementptr inbounds i8, ptr %0, i64 56
  %25 = load ptr, ptr %24, align 8
  %26 = getelementptr inbounds i8, ptr %25, i64 1
  %27 = getelementptr inbounds i8, ptr %0, i64 40
  %28 = load ptr, ptr %27, align 8
  %29 = ptrtoint ptr %28 to i64
  %30 = ptrtoint ptr %26 to i64
  %31 = sub i64 %29, %30
  %32 = and i64 %31, 3
  %33 = getelementptr inbounds i8, ptr %26, i64 %32
  store ptr %33, ptr %24, align 8
  %34 = getelementptr inbounds i8, ptr %0, i64 32
  store ptr %33, ptr %34, align 8
  %35 = getelementptr inbounds i8, ptr %33, i64 4
  %.0.i.i.i = load i32, ptr %35, align 1
  %36 = tail call noundef i32 @llvm.bswap.i32(i32 %.0.i.i.i)
  %37 = shl i32 %36, 1
  %38 = add i32 %37, 2
  %39 = zext i32 %38 to i64
  %40 = getelementptr inbounds i32, ptr %33, i64 %39
  store ptr %40, ptr %24, align 8
  br label %63

41:                                               ; preds = %2
  %42 = getelementptr inbounds i8, ptr %0, i64 56
  %43 = load ptr, ptr %42, align 8
  %44 = getelementptr inbounds i8, ptr %43, i64 1
  %45 = getelementptr inbounds i8, ptr %0, i64 40
  %46 = load ptr, ptr %45, align 8
  %47 = ptrtoint ptr %46 to i64
  %48 = ptrtoint ptr %44 to i64
  %49 = sub i64 %47, %48
  %50 = and i64 %49, 3
  %51 = getelementptr inbounds i8, ptr %44, i64 %50
  store ptr %51, ptr %42, align 8
  %52 = getelementptr inbounds i8, ptr %0, i64 32
  store ptr %51, ptr %52, align 8
  %53 = getelementptr inbounds i8, ptr %51, i64 4
  %.0.i.i.i7 = load i32, ptr %53, align 1
  %54 = tail call noundef i32 @llvm.bswap.i32(i32 %.0.i.i.i7)
  %55 = getelementptr inbounds i8, ptr %51, i64 8
  %.0.i.i.i8 = load i32, ptr %55, align 1
  %56 = tail call noundef i32 @llvm.bswap.i32(i32 %.0.i.i.i8)
  %57 = sub nsw i32 %56, %54
  %58 = sext i32 %57 to i64
  %59 = getelementptr i32, ptr %51, i64 %58
  %60 = getelementptr i8, ptr %59, i64 16
  store ptr %60, ptr %42, align 8
  br label %63

61:                                               ; preds = %2
  %62 = load ptr, ptr @g_assert_poison, align 8
  store i8 88, ptr %62, align 1
  tail call void (i32, ptr, i32, ptr, ...) @_Z12report_fatal11VMErrorTypePKciS1_z(i32 noundef -536870912, ptr noundef nonnull @.str, i32 noundef 130, ptr noundef nonnull @.str.4) #9
  unreachable

63:                                               ; preds = %41, %23, %_ZN9Bytecodes15wide_length_forENS_4CodeE.exit
  %.0 = phi i32 [ 170, %41 ], [ 171, %23 ], [ %12, %_ZN9Bytecodes15wide_length_forENS_4CodeE.exit ]
  ret i32 %.0
}